EXPORTS
	?RemoveXmlControlCharactersL@UpnpXmlStringUtility@@SAPAVHBufC8@@ABVTDesC8@@@Z @ 1 NONAME ; class HBufC8 * UpnpXmlStringUtility::RemoveXmlControlCharactersL(class TDesC8 const &)
	?InstanceID@CUPnPAVTEvent@@QBEHXZ @ 2 NONAME ; int CUPnPAVTEvent::InstanceID(void) const
	??1CUpnpObjectLite@@UAE@XZ @ 3 NONAME ; CUpnpObjectLite::~CUpnpObjectLite(void)
	?SetTitleL@CUpnpObjectLite@@QAEXABVTDesC16@@@Z @ 4 NONAME ; void CUpnpObjectLite::SetTitleL(class TDesC16 const &)
	?NewLC@CUPnPXMLParserLite@@SAPAV1@XZ @ 5 NONAME ; class CUPnPXMLParserLite * CUPnPXMLParserLite::NewLC(void)
	?TransportURI@CUPnPAVTEvent@@QBEABVTDesC8@@XZ @ 6 NONAME ; class TDesC8 const & CUPnPAVTEvent::TransportURI(void) const
	?IsTypeOf@CUpnpObjectLite@@QBEHW4TObjectType@1@@Z @ 7 NONAME ; int CUpnpObjectLite::IsTypeOf(enum CUpnpObjectLite::TObjectType) const
	?Volume@CUPnPAVTEvent@@QBEHXZ @ 8 NONAME ; int CUPnPAVTEvent::Volume(void) const
	?ContainerToXmlLC@CUPnPXMLParser@@SAPAVHBufC8@@ABVCUpnpContainer@@@Z @ 9 NONAME ; class HBufC8 * CUPnPXMLParser::ContainerToXmlLC(class CUpnpContainer const &)
	?XmlForCreateObjectLC@CUPnPXMLParser@@SAPAVHBufC8@@ABVCUpnpItem@@@Z @ 10 NONAME ; class HBufC8 * CUPnPXMLParser::XmlForCreateObjectLC(class CUpnpItem const &)
	?SetObjectIdL@CUpnpObjectLite@@QAEXPAVHBufC8@@@Z @ 11 NONAME ; void CUpnpObjectLite::SetObjectIdL(class HBufC8 *)
	?ParseResultDataL@CUPnPXMLParserLite@@QAEXAAV?$RPointerArray@VCUpnpObjectLite@@@@ABVTDesC8@@ABVTDesC16@@@Z @ 12 NONAME ; void CUPnPXMLParserLite::ParseResultDataL(class RPointerArray<class CUpnpObjectLite> &, class TDesC8 const &, class TDesC16 const &)
	?Mute@CUPnPAVTEvent@@QBEHXZ @ 13 NONAME ; int CUPnPAVTEvent::Mute(void) const
	?ItemAsXmlLC@CUPnPXMLParser@@SAPAVHBufC8@@ABVCUpnpItem@@@Z @ 14 NONAME ; class HBufC8 * CUPnPXMLParser::ItemAsXmlLC(class CUpnpItem const &)
	?NewL@CUPnPXMLParser@@SAPAV1@XZ @ 15 NONAME ; class CUPnPXMLParser * CUPnPXMLParser::NewL(void)
	?NewL@CUPnPXMLParserLite@@SAPAV1@XZ @ 16 NONAME ; class CUPnPXMLParserLite * CUPnPXMLParserLite::NewL(void)
	?SetObjectIdL@CUpnpObjectLite@@QAEXABVTDesC8@@@Z @ 17 NONAME ; void CUpnpObjectLite::SetObjectIdL(class TDesC8 const &)
	?SetObjectClass@CUpnpObjectLite@@QAEXABVTDesC8@@@Z @ 18 NONAME ; void CUpnpObjectLite::SetObjectClass(class TDesC8 const &)
	?NewLC@CUPnPXMLParser@@SAPAV1@XZ @ 19 NONAME ; class CUPnPXMLParser * CUPnPXMLParser::NewLC(void)
	?ParseAvtEventDataL@CUPnPXMLEventParser@@QAEPAVCUPnPAVTEvent@@ABVTDesC8@@H@Z @ 20 NONAME ; class CUPnPAVTEvent * CUPnPXMLEventParser::ParseAvtEventDataL(class TDesC8 const &, int)
	?NewL@CUPnPXMLEventParser@@SAPAV1@XZ @ 21 NONAME ; class CUPnPXMLEventParser * CUPnPXMLEventParser::NewL(void)
	?TransportState@CUPnPAVTEvent@@QBE?AW4TTransportState@1@XZ @ 22 NONAME ; enum CUPnPAVTEvent::TTransportState CUPnPAVTEvent::TransportState(void) const
	?SetTitleL@CUpnpObjectLite@@QAEXPAVHBufC16@@@Z @ 23 NONAME ; void CUpnpObjectLite::SetTitleL(class HBufC16 *)
	?ParseRcEventDataL@CUPnPXMLEventParser@@QAEPAVCUPnPAVTEvent@@ABVTDesC8@@H@Z @ 24 NONAME ; class CUPnPAVTEvent * CUPnPXMLEventParser::ParseRcEventDataL(class TDesC8 const &, int)
	?ObjectId@CUpnpObjectLite@@QBEABVTDesC8@@XZ @ 25 NONAME ; class TDesC8 const & CUpnpObjectLite::ObjectId(void) const
	?Title@CUpnpObjectLite@@QBEABVTDesC16@@XZ @ 26 NONAME ; class TDesC16 const & CUpnpObjectLite::Title(void) const
	?NewL@CUpnpObjectLite@@SAPAV1@XZ @ 27 NONAME ; class CUpnpObjectLite * CUpnpObjectLite::NewL(void)
	?ParseResultDataL@CUPnPXMLParser@@QAEXAAV?$RPointerArray@VCUpnpObject@@@@ABVTDesC8@@@Z @ 28 NONAME ; void CUPnPXMLParser::ParseResultDataL(class RPointerArray<class CUpnpObject> &, class TDesC8 const &)

