EXPORTS
	_ZN14CUPnPXMLParser11ItemAsXmlLCERK9CUpnpItem @ 1 NONAME
	_ZN14CUPnPXMLParser16ContainerToXmlLCERK14CUpnpContainer @ 2 NONAME
	_ZN14CUPnPXMLParser16ParseResultDataLER13RPointerArrayI11CUpnpObjectERK6TDesC8 @ 3 NONAME
	_ZN14CUPnPXMLParser20XmlForCreateObjectLCERK9CUpnpItem @ 4 NONAME
	_ZN14CUPnPXMLParser4NewLEv @ 5 NONAME
	_ZN14CUPnPXMLParser5NewLCEv @ 6 NONAME
	_ZN15CUpnpObjectLite12SetObjectIdLEP6HBufC8 @ 7 NONAME
	_ZN15CUpnpObjectLite12SetObjectIdLERK6TDesC8 @ 8 NONAME
	_ZN15CUpnpObjectLite14SetObjectClassERK6TDesC8 @ 9 NONAME
	_ZN15CUpnpObjectLite4NewLEv @ 10 NONAME
	_ZN15CUpnpObjectLite9SetTitleLEP7HBufC16 @ 11 NONAME
	_ZN15CUpnpObjectLite9SetTitleLERK7TDesC16 @ 12 NONAME
	_ZN15CUpnpObjectLiteD0Ev @ 13 NONAME
	_ZN15CUpnpObjectLiteD1Ev @ 14 NONAME
	_ZN15CUpnpObjectLiteD2Ev @ 15 NONAME
	_ZN18CUPnPXMLParserLite16ParseResultDataLER13RPointerArrayI15CUpnpObjectLiteERK6TDesC8RK7TDesC16 @ 16 NONAME
	_ZN18CUPnPXMLParserLite4NewLEv @ 17 NONAME
	_ZN18CUPnPXMLParserLite5NewLCEv @ 18 NONAME
	_ZN19CUPnPXMLEventParser17ParseRcEventDataLERK6TDesC8i @ 19 NONAME
	_ZN19CUPnPXMLEventParser18ParseAvtEventDataLERK6TDesC8i @ 20 NONAME
	_ZN19CUPnPXMLEventParser4NewLEv @ 21 NONAME
	_ZN20UpnpXmlStringUtility27RemoveXmlControlCharactersLERK6TDesC8 @ 22 NONAME
	_ZNK13CUPnPAVTEvent10InstanceIDEv @ 23 NONAME
	_ZNK13CUPnPAVTEvent12TransportURIEv @ 24 NONAME
	_ZNK13CUPnPAVTEvent14TransportStateEv @ 25 NONAME
	_ZNK13CUPnPAVTEvent4MuteEv @ 26 NONAME
	_ZNK13CUPnPAVTEvent6VolumeEv @ 27 NONAME
	_ZNK15CUpnpObjectLite5TitleEv @ 28 NONAME
	_ZNK15CUpnpObjectLite8IsTypeOfENS_11TObjectTypeE @ 29 NONAME
	_ZNK15CUpnpObjectLite8ObjectIdEv @ 30 NONAME
	_ZTI13CUPnPAVTEvent @ 31 NONAME ; #<TI>#
	_ZTI14CUPnPXMLParser @ 32 NONAME ; #<TI>#
	_ZTI18CUPnPXMLParserLite @ 33 NONAME ; #<TI>#
	_ZTI19CUPnPXMLEventParser @ 34 NONAME ; #<TI>#
	_ZTV13CUPnPAVTEvent @ 35 NONAME ; #<VT>#
	_ZTV14CUPnPXMLParser @ 36 NONAME ; #<VT>#
	_ZTV18CUPnPXMLParserLite @ 37 NONAME ; #<VT>#
	_ZTV19CUPnPXMLEventParser @ 38 NONAME ; #<VT>#

