EXPORTS
	?UnknownHttpEventReceivedL@CUpnpContentDirectory@@QAEXAAVCUpnpHttpMessage@@@Z @ 1 NONAME ; void CUpnpContentDirectory::UnknownHttpEventReceivedL(class CUpnpHttpMessage &)
	?SendActionL@CUpnpContentDirectory@@QAEXPAVCUpnpAction@@W4TUpnpErrorCode@@@Z @ 2 NONAME ; void CUpnpContentDirectory::SendActionL(class CUpnpAction *, enum TUpnpErrorCode)
	?NewL@CUpnpContentDirectoryService@@SAPAV1@XZ @ 3 NONAME ; class CUpnpContentDirectoryService * CUpnpContentDirectoryService::NewL(void)
	?ShareReferenceListL@CUpnpContentDirectoryService@@QAEXPAVCUpnpItemList@@PAH@Z @ 4 NONAME ; void CUpnpContentDirectoryService::ShareReferenceListL(class CUpnpItemList *, int *)
	?NewLC@CUpnpContentDirectoryService@@SAPAV1@UTUpnpCdSettings@@@Z @ 5 NONAME ; class CUpnpContentDirectoryService * CUpnpContentDirectoryService::NewLC(struct TUpnpCdSettings)
	?NewTransactionL@CUpnpDlnaFilter@@UAEXABVTDesC8@@0ABVTInetAddr@@AAPAVCUpnpHttpServerTransaction@@@Z @ 6 NONAME ; void CUpnpDlnaFilter::NewTransactionL(class TDesC8 const &, class TDesC8 const &, class TInetAddr const &, class CUpnpHttpServerTransaction * &)
	?GetSingleContainerL@CUpnpContentDirectoryService@@QAEPAVCUpnpContainer@@H@Z @ 7 NONAME ; class CUpnpContainer * CUpnpContentDirectoryService::GetSingleContainerL(int)
	?AddressChangeL@CUpnpContentDirectoryService@@QAEXXZ @ 8 NONAME ; void CUpnpContentDirectoryService::AddressChangeL(void)
	?UnshareItemL@CUpnpContentDirectoryService@@QAEXH@Z @ 9 NONAME ; void CUpnpContentDirectoryService::UnshareItemL(int)
	?SendMessageL@CUpnpContentDirectory@@QAEXPAVCUpnpHttpMessage@@@Z @ 10 NONAME ; void CUpnpContentDirectory::SendMessageL(class CUpnpHttpMessage *)
	?ShareReferenceL@CUpnpContentDirectoryService@@QAEXPAVCUpnpItem@@@Z @ 11 NONAME ; void CUpnpContentDirectoryService::ShareReferenceL(class CUpnpItem *)
	?GetContentDirectory@CUpnpContentDirectoryService@@QAEPAVCUpnpContentDirectory@@XZ @ 12 NONAME ; class CUpnpContentDirectory * CUpnpContentDirectoryService::GetContentDirectory(void)
	?UnshareItemListL@CUpnpContentDirectoryService@@QAEXAAV?$RArray@H@@PAH@Z @ 13 NONAME ; void CUpnpContentDirectoryService::UnshareItemListL(class RArray<int> &, int *)
	?GetAddress@CUpnpContentDirectoryService@@QAE?AVTInetAddr@@XZ @ 14 NONAME ; class TInetAddr CUpnpContentDirectoryService::GetAddress(void)
	?NewL@CUpnpDlnaFilter@@SAPAV1@PAVMUpnpContentDirectoryDataFinder@@PAVCUpnpSecurityManager@@@Z @ 15 NONAME ; class CUpnpDlnaFilter * CUpnpDlnaFilter::NewL(class MUpnpContentDirectoryDataFinder *, class CUpnpSecurityManager *)
	?NewTransactionL@CUpnpContentDirectory@@UAEXABVTDesC8@@0ABVTInetAddr@@AAPAVCUpnpHttpServerTransaction@@@Z @ 16 NONAME ; void CUpnpContentDirectory::NewTransactionL(class TDesC8 const &, class TDesC8 const &, class TInetAddr const &, class CUpnpHttpServerTransaction * &)
	?NewL@CUpnpContentDirectoryService@@SAPAV1@UTUpnpCdSettings@@@Z @ 17 NONAME ; class CUpnpContentDirectoryService * CUpnpContentDirectoryService::NewL(struct TUpnpCdSettings)
	?SetDownloadDirectoryL@CUpnpContentDirectoryService@@QAEXABVTDesC16@@@Z @ 18 NONAME ; void CUpnpContentDirectoryService::SetDownloadDirectoryL(class TDesC16 const &)
	?ShareItemListL@CUpnpContentDirectoryService@@QAEXPAVCUpnpItemList@@PAH@Z @ 19 NONAME ; void CUpnpContentDirectoryService::ShareItemListL(class CUpnpItemList *, int *)
	?ShareObjectL@CUpnpContentDirectoryService@@QAEXPAVCUpnpObject@@@Z @ 20 NONAME ; void CUpnpContentDirectoryService::ShareObjectL(class CUpnpObject *)
	?SetSender@CUpnpContentDirectory@@QAEXPAVMUpnpCdsSender@@@Z @ 21 NONAME ; void CUpnpContentDirectory::SetSender(class MUpnpCdsSender *)
	?UnshareContainerL@CUpnpContentDirectoryService@@QAEXH@Z @ 22 NONAME ; void CUpnpContentDirectoryService::UnshareContainerL(int)
	?GetItemListL@CUpnpContentDirectoryService@@QAEXHPAVCUpnpBrowseCriteria@@PAHPAVCUpnpItemList@@@Z @ 23 NONAME ; void CUpnpContentDirectoryService::GetItemListL(int, class CUpnpBrowseCriteria *, int *, class CUpnpItemList *)
	?GetContainerListL@CUpnpContentDirectoryService@@QAEXHPAVCUpnpBrowseCriteria@@PAHPAVCUpnpContainerList@@@Z @ 24 NONAME ; void CUpnpContentDirectoryService::GetContainerListL(int, class CUpnpBrowseCriteria *, int *, class CUpnpContainerList *)
	?HttpTransferEventReceivedL@CUpnpContentDirectory@@QAEXAAVCUpnpHttpMessage@@@Z @ 25 NONAME ; void CUpnpContentDirectory::HttpTransferEventReceivedL(class CUpnpHttpMessage &)
	?NewLC@CUpnpContentDirectoryService@@SAPAV1@XZ @ 26 NONAME ; class CUpnpContentDirectoryService * CUpnpContentDirectoryService::NewLC(void)
	?SetThumbnailDirectoryL@CUpnpContentDirectoryService@@QAEXABVTDesC16@@@Z @ 27 NONAME ; void CUpnpContentDirectoryService::SetThumbnailDirectoryL(class TDesC16 const &)
	?GetSharedItemL@CUpnpContentDirectoryService@@QAEPAVCUpnpItem@@H@Z @ 28 NONAME ; class CUpnpItem * CUpnpContentDirectoryService::GetSharedItemL(int)
	?NewLC@CUpnpDlnaFilter@@SAPAV1@PAVMUpnpContentDirectoryDataFinder@@PAVCUpnpSecurityManager@@@Z @ 29 NONAME ; class CUpnpDlnaFilter * CUpnpDlnaFilter::NewLC(class MUpnpContentDirectoryDataFinder *, class CUpnpSecurityManager *)

