EXPORTS
	??1CUpnpCdsLiteObject@@UAE@XZ @ 1 NONAME ; CUpnpCdsLiteObject::~CUpnpCdsLiteObject(void)
	?IsFileSharedL@CUpnpSharingAlgorithmImpl@@UAEHABV?$TBuf@$0BAA@@@@Z @ 2 NONAME ; int CUpnpSharingAlgorithmImpl::IsFileSharedL(class TBuf<256> const &)
	?RemoveObjectAtL@CUpnpCdsLiteObjectArray@@QAEXI@Z @ 3 NONAME ; void CUpnpCdsLiteObjectArray::RemoveObjectAtL(unsigned int)
	?RemoveL@CUpnpCdsLiteObjectArray@@QAEXPBVCUpnpObject@@@Z @ 4 NONAME ; void CUpnpCdsLiteObjectArray::RemoveL(class CUpnpObject const *)
	?FindRefItemIdByOriginalIdL@CUpnpCdsLiteObjectArray@@QAEHABVTDesC8@@@Z @ 5 NONAME ; int CUpnpCdsLiteObjectArray::FindRefItemIdByOriginalIdL(class TDesC8 const &)
	?FindByNameAndParentId@CUpnpCdsLiteObjectArray@@QAEHABVTDesC8@@0@Z @ 6 NONAME ; int CUpnpCdsLiteObjectArray::FindByNameAndParentId(class TDesC8 const &, class TDesC8 const &)
	?ParentId@CUpnpCdsLiteObject@@QAEAAVTDesC8@@XZ @ 7 NONAME ; class TDesC8 & CUpnpCdsLiteObject::ParentId(void)
	?FindByName@CUpnpCdsLiteObjectArray@@QAEHAAVTDesC8@@@Z @ 8 NONAME ; int CUpnpCdsLiteObjectArray::FindByName(class TDesC8 &)
	?ObjectClass@CUpnpCdsLiteObject@@QAEAAVTDesC8@@XZ @ 9 NONAME ; class TDesC8 & CUpnpCdsLiteObject::ObjectClass(void)
	?NewSharingApiL@CUPnPSharingAlgorithmFactory@@SAPAVMUpnpSharingAlgorithm@@XZ @ 10 NONAME ; class MUpnpSharingAlgorithm * CUPnPSharingAlgorithmFactory::NewSharingApiL(void)
	?NewL@CUpnpCdsLiteObjectArray@@SAPAV1@XZ @ 11 NONAME ; class CUpnpCdsLiteObjectArray * CUpnpCdsLiteObjectArray::NewL(void)
	?ObjectId@CUpnpCdsLiteObject@@QAEAAVTDesC8@@XZ @ 12 NONAME ; class TDesC8 & CUpnpCdsLiteObject::ObjectId(void)
	?AppendL@CUpnpCdsLiteObjectArray@@QAEXPAVCUpnpCdsLiteObject@@@Z @ 13 NONAME ; void CUpnpCdsLiteObjectArray::AppendL(class CUpnpCdsLiteObject *)
	??1CUpnpCdsLiteObjectArray@@UAE@XZ @ 14 NONAME ; CUpnpCdsLiteObjectArray::~CUpnpCdsLiteObjectArray(void)
	?Type@CUpnpCdsLiteObject@@QAE?AW4TCdsLiteObjectType@1@XZ @ 15 NONAME ; enum CUpnpCdsLiteObject::TCdsLiteObjectType CUpnpCdsLiteObject::Type(void)
	?FindByObjectId@CUpnpCdsLiteObjectArray@@QAEHABVTDesC8@@@Z @ 16 NONAME ; int CUpnpCdsLiteObjectArray::FindByObjectId(class TDesC8 const &)
	?SetOriginalItemIdL@CUpnpCdsLiteObject@@QAEXABVTDesC8@@@Z @ 17 NONAME ; void CUpnpCdsLiteObject::SetOriginalItemIdL(class TDesC8 const &)
	?OriginalItemIdL@CUpnpCdsLiteObject@@QAEAAVTDesC8@@XZ @ 18 NONAME ; class TDesC8 & CUpnpCdsLiteObject::OriginalItemIdL(void)
	?Count@CUpnpCdsLiteObjectArray@@QAEHXZ @ 19 NONAME ; int CUpnpCdsLiteObjectArray::Count(void)
	?ObjectAtL@CUpnpCdsLiteObjectArray@@QAEAAVCUpnpCdsLiteObject@@I@Z @ 20 NONAME ; class CUpnpCdsLiteObject & CUpnpCdsLiteObjectArray::ObjectAtL(unsigned int)
	?FindByMediaClassAndParentId@CUpnpCdsLiteObjectArray@@QAEHABVTDesC8@@0@Z @ 21 NONAME ; int CUpnpCdsLiteObjectArray::FindByMediaClassAndParentId(class TDesC8 const &, class TDesC8 const &)
	?Name@CUpnpCdsLiteObject@@QAEAAVTDesC8@@XZ @ 22 NONAME ; class TDesC8 & CUpnpCdsLiteObject::Name(void)
	?ChildCount@CUpnpCdsLiteObjectArray@@QAEHABVTDesC8@@@Z @ 23 NONAME ; int CUpnpCdsLiteObjectArray::ChildCount(class TDesC8 const &)
	?AppendL@CUpnpCdsLiteObjectArray@@QAEXPBVCUpnpObject@@@Z @ 24 NONAME ; void CUpnpCdsLiteObjectArray::AppendL(class CUpnpObject const *)
	?NewL@CUpnpCdsLiteObject@@SAPAV1@ABVTDesC8@@W4TCdsLiteObjectType@1@000@Z @ 25 NONAME ; class CUpnpCdsLiteObject * CUpnpCdsLiteObject::NewL(class TDesC8 const &, enum CUpnpCdsLiteObject::TCdsLiteObjectType, class TDesC8 const &, class TDesC8 const &, class TDesC8 const &)

